; Function Attrs: mustprogress uwtable
define void @_ZN12ErrorHandler12OpenErrorMsgEPKw(ptr nocapture noundef nonnull align 4 dereferenceable(14) %0, ptr noundef %1) local_unnamed_addr #2 align 2 {
  %3 = alloca %class.uiMsgStore, align 8
  call void @llvm.lifetime.start.p0(i64 112, ptr nonnull %3)
  br label %4

4:                                                ; preds = %4, %2
  %indvars.iv.i.i.i = phi i64 [ 0, %2 ], [ %indvars.iv.next.i.i.i, %4 ]
  %5 = getelementptr inbounds [8 x ptr], ptr %3, i64 0, i64 %indvars.iv.i.i.i
  store ptr @.str, ptr %5, align 8
  %indvars.iv.next.i.i.i = add nuw nsw i64 %indvars.iv.i.i.i, 1
  %exitcond.not.i.i.i = icmp eq i64 %indvars.iv.next.i.i.i, 8
  br i1 %exitcond.not.i.i.i, label %_ZN12ErrorHandler12OpenErrorMsgEPKwS1_.exit, label %4, !llvm.loop !4

_ZN12ErrorHandler12OpenErrorMsgEPKwS1_.exit:      ; preds = %4
  %6 = getelementptr inbounds i8, ptr %3, i64 64
  %7 = getelementptr inbounds i8, ptr %3, i64 104
  call void @llvm.memset.p0.i64(ptr noundef nonnull align 8 dereferenceable(40) %6, i8 0, i64 40, i1 false)
  store i32 8, ptr %7, align 8
  %8 = getelementptr inbounds i8, ptr %3, i64 96
  store ptr null, ptr %3, align 8
  store i32 2, ptr %8, align 8
  %9 = getelementptr inbounds i8, ptr %3, i64 8
  store ptr %1, ptr %9, align 8
  call void @_ZN10uiMsgStore3MsgEv(ptr noundef nonnull align 8 dereferenceable(108) %3)
  call void @llvm.lifetime.end.p0(i64 112, ptr nonnull %3)
  store i32 6, ptr %0, align 4
  %10 = getelementptr inbounds i8, ptr %0, i64 4
  %11 = load i32, ptr %10, align 4
  %12 = add i32 %11, 1
  store i32 %12, ptr %10, align 4
  call void @_Z4Waitv()
  ret void
}